; Function Attrs: mustprogress uwtable
define noundef double @_ZNK8QuantLib19EulerDiscretization8varianceERKNS_19StochasticProcess1DEddd(ptr nocapture nonnull readnone align 8 %this, ptr noundef nonnull align 8 dereferenceable(144) %process, double noundef %t0, double noundef %x0, double noundef %dt) unnamed_addr #3 align 2 {
entry:
  %vtable = load ptr, ptr %process, align 8, !tbaa !3
  %vfn = getelementptr inbounds i8, ptr %vtable, i64 136
  %0 = load ptr, ptr %vfn, align 8
  %call = tail call noundef double %0(ptr noundef nonnull align 8 dereferenceable(144) %process, double noundef %t0, double noundef %x0)
  %mul = fmul double %call, %call
  %mul2 = fmul double %dt, %mul
  ret double %mul2
}